target datalayout = "e-m:e-p270:32:32-p271:32:32-p272:64:64-i64:64-i128:128-f80:128-n8:16:32:64-S128"
target triple = "x86_64-pc-linux-gnu"

%"class.cv::Mat" = type { i32, i32, i32, i32, ptr, ptr, ptr, ptr, ptr, ptr, %"struct.cv::MatSize", %"struct.cv::MatStep" }
%"struct.cv::MatSize" = type { ptr }
%"struct.cv::MatStep" = type { ptr, [2 x i64] }
%"class.cv::ximgproc::segmentation::PointSet" = type { i32, ptr }
%"class.cv::ximgproc::segmentation::PointSetElement" = type { i32, i32 }

; Function Attrs: mustprogress nounwind uwtable
define hidden noundef i32 @_ZN2cv8ximgproc12segmentation8PointSet12getBasePointEi(ptr noundef nonnull align 8 dereferenceable(16) %0, i32 noundef %1) #11 align 2 {
  %3 = alloca ptr, align 8
  %4 = alloca i32, align 4
  %5 = alloca i32, align 4
  store ptr %0, ptr %3, align 8, !tbaa !65
  store i32 %1, ptr %4, align 4, !tbaa !27
  %6 = load ptr, ptr %3, align 8
  call void @llvm.lifetime.start.p0(i64 4, ptr %5) #3
  %7 = load i32, ptr %4, align 4, !tbaa !27
  store i32 %7, ptr %5, align 4, !tbaa !27
  br label %8

8:                                                ; preds = %18, %2
  %9 = load i32, ptr %5, align 4, !tbaa !27
  %10 = getelementptr inbounds nuw %"class.cv::ximgproc::segmentation::PointSet", ptr %6, i32 0, i32 1
  %11 = load ptr, ptr %10, align 8, !tbaa !70
  %12 = load i32, ptr %5, align 4, !tbaa !27
  %13 = sext i32 %12 to i64
  %14 = getelementptr inbounds %"class.cv::ximgproc::segmentation::PointSetElement", ptr %11, i64 %13
  %15 = getelementptr inbounds nuw %"class.cv::ximgproc::segmentation::PointSetElement", ptr %14, i32 0, i32 0
  %16 = load i32, ptr %15, align 4, !tbaa !73
  %17 = icmp ne i32 %9, %16
  br i1 %17, label %18, label %26

18:                                               ; preds = %8
  %19 = getelementptr inbounds nuw %"class.cv::ximgproc::segmentation::PointSet", ptr %6, i32 0, i32 1
  %20 = load ptr, ptr %19, align 8, !tbaa !70
  %21 = load i32, ptr %5, align 4, !tbaa !27
  %22 = sext i32 %21 to i64
  %23 = getelementptr inbounds %"class.cv::ximgproc::segmentation::PointSetElement", ptr %20, i64 %22
  %24 = getelementptr inbounds nuw %"class.cv::ximgproc::segmentation::PointSetElement", ptr %23, i32 0, i32 0
  %25 = load i32, ptr %24, align 4, !tbaa !73
  store i32 %25, ptr %5, align 4, !tbaa !27
  br label %8, !llvm.loop !75

26:                                               ; preds = %8
  %27 = load i32, ptr %5, align 4, !tbaa !27
  %28 = getelementptr inbounds nuw %"class.cv::ximgproc::segmentation::PointSet", ptr %6, i32 0, i32 1
  %29 = load ptr, ptr %28, align 8, !tbaa !70
  %30 = load i32, ptr %4, align 4, !tbaa !27
  %31 = sext i32 %30 to i64
  %32 = getelementptr inbounds %"class.cv::ximgproc::segmentation::PointSetElement", ptr %29, i64 %31
  %33 = getelementptr inbounds nuw %"class.cv::ximgproc::segmentation::PointSetElement", ptr %32, i32 0, i32 0
  store i32 %27, ptr %33, align 4, !tbaa !73
  %34 = load i32, ptr %5, align 4, !tbaa !27
  call void @llvm.lifetime.end.p0(i64 4, ptr %5) #3
  ret i32 %34
}

; Function Attrs: inlinehint mustprogress nounwind uwtable
define linkonce_odr hidden noundef ptr @_ZN2cv3Mat3ptrIiEEPT_i(ptr noundef nonnull align 8 dereferenceable(96) %0, i32 noundef %1) #7 comdat align 2 {
  %3 = alloca ptr, align 8
  %4 = alloca i32, align 4
  store ptr %0, ptr %3, align 8, !tbaa !8
  store i32 %1, ptr %4, align 4, !tbaa !27
  %5 = load ptr, ptr %3, align 8
  %6 = getelementptr inbounds nuw %"class.cv::Mat", ptr %5, i32 0, i32 4
  %7 = load ptr, ptr %6, align 8, !tbaa !60
  %8 = getelementptr inbounds nuw %"class.cv::Mat", ptr %5, i32 0, i32 11
  %9 = getelementptr inbounds nuw %"struct.cv::MatStep", ptr %8, i32 0, i32 0
  %10 = load ptr, ptr %9, align 8, !tbaa !61
  %11 = getelementptr inbounds i64, ptr %10, i64 0
  %12 = load i64, ptr %11, align 8, !tbaa !62
  %13 = load i32, ptr %4, align 4, !tbaa !27
  %14 = sext i32 %13 to i64
  %15 = mul i64 %12, %14
  %16 = getelementptr inbounds nuw i8, ptr %7, i64 %15
  ret ptr %16
}

; Function Attrs: inlinehint mustprogress nounwind uwtable
define linkonce_odr hidden noundef zeroext i1 @_ZNK2cv3Mat12isContinuousEv(ptr noundef nonnull align 8 dereferenceable(96) %0) #7 comdat align 2 {
  %2 = alloca ptr, align 8
  store ptr %0, ptr %2, align 8, !tbaa !8
  %3 = load ptr, ptr %2, align 8
  %4 = getelementptr inbounds nuw %"class.cv::Mat", ptr %3, i32 0, i32 0
  %5 = load i32, ptr %4, align 8, !tbaa !59
  %6 = and i32 %5, 16384
  %7 = icmp ne i32 %6, 0
  ret i1 %7
}

; Function Attrs: mustprogress uwtable
define hidden void @_ZN2cv8ximgproc12segmentation21GraphSegmentationImpl12finalMappingEPNS1_8PointSetERNS_3MatE(ptr noundef nonnull align 8 dereferenceable(56) %0, ptr noundef %1, ptr noundef nonnull align 8 dereferenceable(96) %2) #4 align 2 {
  %4 = alloca ptr, align 8
  %5 = alloca ptr, align 8
  %6 = alloca ptr, align 8
  %7 = alloca i32, align 4
  %8 = alloca i32, align 4
  %9 = alloca ptr, align 8
  %10 = alloca i32, align 4
  %11 = alloca i32, align 4
  %12 = alloca i32, align 4
  %13 = alloca i32, align 4
  %14 = alloca i32, align 4
  %15 = alloca ptr, align 8
  %16 = alloca i32, align 4
  %17 = alloca i32, align 4
  store ptr %0, ptr %4, align 8, !tbaa !3
  store ptr %1, ptr %5, align 8, !tbaa !65
  store ptr %2, ptr %6, align 8, !tbaa !8
  call void @llvm.lifetime.start.p0(i64 4, ptr %7) #3
  %18 = load ptr, ptr %6, align 8, !tbaa !8
  %19 = getelementptr inbounds nuw %"class.cv::Mat", ptr %18, i32 0, i32 2
  %20 = load i32, ptr %19, align 8, !tbaa !36
  %21 = load ptr, ptr %6, align 8, !tbaa !8
  %22 = getelementptr inbounds nuw %"class.cv::Mat", ptr %21, i32 0, i32 3
  %23 = load i32, ptr %22, align 4, !tbaa !43
  %24 = mul nsw i32 %20, %23
  store i32 %24, ptr %7, align 4, !tbaa !27
  call void @llvm.lifetime.start.p0(i64 4, ptr %8) #3
  store i32 0, ptr %8, align 4, !tbaa !27
  call void @llvm.lifetime.start.p0(i64 8, ptr %9) #3
  %25 = load i32, ptr %7, align 4, !tbaa !27
  %26 = sext i32 %25 to i64
  %27 = call { i64, i1 } @llvm.umul.with.overflow.i64(i64 %26, i64 4)
  %28 = extractvalue { i64, i1 } %27, 1
  %29 = extractvalue { i64, i1 } %27, 0
  %30 = select i1 %28, i64 -1, i64 %29
  %31 = call noalias noundef nonnull ptr @_Znam(i64 noundef %30) #20
  store ptr %31, ptr %9, align 8, !tbaa !34
  call void @llvm.lifetime.start.p0(i64 4, ptr %10) #3
  store i32 0, ptr %10, align 4, !tbaa !27
  br label %32

32:                                               ; preds = %42, %3
  %33 = load i32, ptr %10, align 4, !tbaa !27
  %34 = load i32, ptr %7, align 4, !tbaa !27
  %35 = icmp slt i32 %33, %34
  br i1 %35, label %37, label %36

36:                                               ; preds = %32
  call void @llvm.lifetime.end.p0(i64 4, ptr %10) #3
  br label %45

37:                                               ; preds = %32
  %38 = load ptr, ptr %9, align 8, !tbaa !34
  %39 = load i32, ptr %10, align 4, !tbaa !27
  %40 = sext i32 %39 to i64
  %41 = getelementptr inbounds i32, ptr %38, i64 %40
  store i32 -1, ptr %41, align 4, !tbaa !27
  br label %42

42:                                               ; preds = %37
  %43 = load i32, ptr %10, align 4, !tbaa !27
  %44 = add nsw i32 %43, 1
  store i32 %44, ptr %10, align 4, !tbaa !27
  br label %32, !llvm.loop !80

45:                                               ; preds = %36
  call void @llvm.lifetime.start.p0(i64 4, ptr %11) #3
  %46 = load ptr, ptr %6, align 8, !tbaa !8
  %47 = getelementptr inbounds nuw %"class.cv::Mat", ptr %46, i32 0, i32 2
  %48 = load i32, ptr %47, align 8, !tbaa !36
  store i32 %48, ptr %11, align 4, !tbaa !27
  call void @llvm.lifetime.start.p0(i64 4, ptr %12) #3
  %49 = load ptr, ptr %6, align 8, !tbaa !8
  %50 = getelementptr inbounds nuw %"class.cv::Mat", ptr %49, i32 0, i32 3
  %51 = load i32, ptr %50, align 4, !tbaa !43
  store i32 %51, ptr %12, align 4, !tbaa !27
  %52 = load ptr, ptr %6, align 8, !tbaa !8
  %53 = call noundef zeroext i1 @_ZNK2cv3Mat12isContinuousEv(ptr noundef nonnull align 8 dereferenceable(96) %52)
  br i1 %53, label %54, label %58

54:                                               ; preds = %45
  %55 = load i32, ptr %11, align 4, !tbaa !27
  %56 = load i32, ptr %12, align 4, !tbaa !27
  %57 = mul nsw i32 %56, %55
  store i32 %57, ptr %12, align 4, !tbaa !27
  store i32 1, ptr %11, align 4, !tbaa !27
  br label %58

58:                                               ; preds = %54, %45
  call void @llvm.lifetime.start.p0(i64 4, ptr %13) #3
  store i32 0, ptr %13, align 4, !tbaa !27
  br label %59

59:                                               ; preds = %109, %58
  %60 = load i32, ptr %13, align 4, !tbaa !27
  %61 = load i32, ptr %11, align 4, !tbaa !27
  %62 = icmp slt i32 %60, %61
  br i1 %62, label %64, label %63

63:                                               ; preds = %59
  store i32 5, ptr %14, align 4
  call void @llvm.lifetime.end.p0(i64 4, ptr %13) #3
  br label %112

64:                                               ; preds = %59
  call void @llvm.lifetime.start.p0(i64 8, ptr %15) #3
  %65 = load ptr, ptr %6, align 8, !tbaa !8
  %66 = load i32, ptr %13, align 4, !tbaa !27
  %67 = call noundef ptr @_ZN2cv3Mat3ptrIiEEPT_i(ptr noundef nonnull align 8 dereferenceable(96) %65, i32 noundef %66)
  store ptr %67, ptr %15, align 8, !tbaa !34
  call void @llvm.lifetime.start.p0(i64 4, ptr %16) #3
  store i32 0, ptr %16, align 4, !tbaa !27
  br label %68

68:                                               ; preds = %105, %64
  %69 = load i32, ptr %16, align 4, !tbaa !27
  %70 = load i32, ptr %12, align 4, !tbaa !27
  %71 = icmp slt i32 %69, %70
  br i1 %71, label %73, label %72

72:                                               ; preds = %68
  store i32 8, ptr %14, align 4
  call void @llvm.lifetime.end.p0(i64 4, ptr %16) #3
  br label %108

73:                                               ; preds = %68
  call void @llvm.lifetime.start.p0(i64 4, ptr %17) #3
  %74 = load ptr, ptr %5, align 8, !tbaa !65
  %75 = load i32, ptr %13, align 4, !tbaa !27
  %76 = load i32, ptr %12, align 4, !tbaa !27
  %77 = mul nsw i32 %75, %76
  %78 = load i32, ptr %16, align 4, !tbaa !27
  %79 = add nsw i32 %77, %78
  %80 = call noundef i32 @_ZN2cv8ximgproc12segmentation8PointSet12getBasePointEi(ptr noundef nonnull align 8 dereferenceable(16) %74, i32 noundef %79)
  store i32 %80, ptr %17, align 4, !tbaa !27
  %81 = load ptr, ptr %9, align 8, !tbaa !34
  %82 = load i32, ptr %17, align 4, !tbaa !27
  %83 = sext i32 %82 to i64
  %84 = getelementptr inbounds i32, ptr %81, i64 %83
  %85 = load i32, ptr %84, align 4, !tbaa !27
  %86 = icmp eq i32 %85, -1
  br i1 %86, label %87, label %95

87:                                               ; preds = %73
  %88 = load i32, ptr %8, align 4, !tbaa !27
  %89 = load ptr, ptr %9, align 8, !tbaa !34
  %90 = load i32, ptr %17, align 4, !tbaa !27
  %91 = sext i32 %90 to i64
  %92 = getelementptr inbounds i32, ptr %89, i64 %91
  store i32 %88, ptr %92, align 4, !tbaa !27
  %93 = load i32, ptr %8, align 4, !tbaa !27
  %94 = add nsw i32 %93, 1
  store i32 %94, ptr %8, align 4, !tbaa !27
  br label %95

95:                                               ; preds = %87, %73
  %96 = load ptr, ptr %9, align 8, !tbaa !34
  %97 = load i32, ptr %17, align 4, !tbaa !27
  %98 = sext i32 %97 to i64
  %99 = getelementptr inbounds i32, ptr %96, i64 %98
  %100 = load i32, ptr %99, align 4, !tbaa !27
  %101 = load ptr, ptr %15, align 8, !tbaa !34
  %102 = load i32, ptr %16, align 4, !tbaa !27
  %103 = sext i32 %102 to i64
  %104 = getelementptr inbounds i32, ptr %101, i64 %103
  store i32 %100, ptr %104, align 4, !tbaa !27
  call void @llvm.lifetime.end.p0(i64 4, ptr %17) #3
  br label %105

105:                                              ; preds = %95
  %106 = load i32, ptr %16, align 4, !tbaa !27
  %107 = add nsw i32 %106, 1
  store i32 %107, ptr %16, align 4, !tbaa !27
  br label %68, !llvm.loop !81

108:                                              ; preds = %72
  call void @llvm.lifetime.end.p0(i64 8, ptr %15) #3
  br label %109

109:                                              ; preds = %108
  %110 = load i32, ptr %13, align 4, !tbaa !27
  %111 = add nsw i32 %110, 1
  store i32 %111, ptr %13, align 4, !tbaa !27
  br label %59, !llvm.loop !82

112:                                              ; preds = %63
  %113 = load ptr, ptr %9, align 8, !tbaa !34
  %114 = icmp eq ptr %113, null
  br i1 %114, label %116, label %115

115:                                              ; preds = %112
  call void @_ZdaPv(ptr noundef %113) #21
  br label %116

116:                                              ; preds = %115, %112
  call void @llvm.lifetime.end.p0(i64 4, ptr %12) #3
  call void @llvm.lifetime.end.p0(i64 4, ptr %11) #3
  call void @llvm.lifetime.end.p0(i64 8, ptr %9) #3
  call void @llvm.lifetime.end.p0(i64 4, ptr %8) #3
  call void @llvm.lifetime.end.p0(i64 4, ptr %7) #3
  ret void
}