; Function Attrs: mustprogress uwtable
define hidden void @_ZN2cv8ximgproc12segmentation21GraphSegmentationImpl12finalMappingEPNS1_8PointSetERNS_3MatE(ptr noundef nonnull readnone align 8 captures(none) dereferenceable(56) %0, ptr noundef readonly captures(none) %1, ptr noundef nonnull readonly align 8 captures(none) dereferenceable(96) %2) local_unnamed_addr #3 align 2 {
  %4 = getelementptr inbounds nuw i8, ptr %2, i64 8
  %5 = load i32, ptr %4, align 8, !tbaa !23
  %6 = getelementptr inbounds nuw i8, ptr %2, i64 12
  %7 = load i32, ptr %6, align 4, !tbaa !31
  %8 = mul nsw i32 %7, %5
  %9 = sext i32 %8 to i64
  %10 = icmp slt i32 %8, 0
  %11 = shl nsw i64 %9, 2
  %12 = select i1 %10, i64 -1, i64 %11
  %13 = tail call noalias noundef nonnull ptr @_Znam(i64 noundef %12) #22
  %14 = icmp sgt i32 %8, 0
  br i1 %14, label %.lr.ph.preheader, label %._crit_edge

.lr.ph.preheader:                                 ; preds = %3
  %15 = zext nneg i32 %8 to i64
  %16 = shl nuw nsw i64 %15, 2
  tail call void @llvm.memset.p0.i64(ptr nonnull align 4 %13, i8 -1, i64 %16, i1 false), !tbaa !34
  br label %._crit_edge

._crit_edge:                                      ; preds = %.lr.ph.preheader, %3
  %17 = load i32, ptr %2, align 8, !tbaa !35
  %18 = and i32 %17, 16384
  %.not = icmp eq i32 %18, 0
  %spec.select = select i1 %.not, i32 %5, i32 1
  %spec.select40 = select i1 %.not, i32 %7, i32 %8
  %19 = icmp sgt i32 %spec.select, 0
  br i1 %19, label %.lr.ph50, label %._crit_edge51

.lr.ph50:                                         ; preds = %._crit_edge
  %20 = getelementptr inbounds nuw i8, ptr %2, i64 16
  %21 = load ptr, ptr %20, align 8, !tbaa !36
  %22 = getelementptr inbounds nuw i8, ptr %2, i64 72
  %23 = load ptr, ptr %22, align 8, !tbaa !37
  %24 = load i64, ptr %23, align 8, !tbaa !38
  %25 = icmp sgt i32 %spec.select40, 0
  br i1 %25, label %.lr.ph50.split.us, label %._crit_edge51

.lr.ph50.split.us:                                ; preds = %.lr.ph50
  %26 = getelementptr inbounds nuw i8, ptr %1, i64 8
  %27 = load ptr, ptr %26, align 8, !tbaa !54
  %28 = zext nneg i32 %spec.select40 to i64
  %wide.trip.count58 = zext nneg i32 %spec.select to i64
  br label %.lr.ph45.us

.lr.ph45.us:                                      ; preds = %._crit_edge46.us, %.lr.ph50.split.us
  %indvars.iv55 = phi i64 [ %indvars.iv.next56, %._crit_edge46.us ], [ 0, %.lr.ph50.split.us ]
  %.048.us = phi i32 [ %.2.us, %._crit_edge46.us ], [ 0, %.lr.ph50.split.us ]
  %29 = mul i64 %24, %indvars.iv55
  %30 = getelementptr inbounds nuw i8, ptr %21, i64 %29
  %31 = mul nuw nsw i64 %indvars.iv55, %28
  br label %32

32:                                               ; preds = %.lr.ph45.us, %45
  %indvars.iv = phi i64 [ 0, %.lr.ph45.us ], [ %indvars.iv.next, %45 ]
  %.143.us = phi i32 [ %.048.us, %.lr.ph45.us ], [ %.2.us, %45 ]
  %33 = add nuw nsw i64 %indvars.iv, %31
  %34 = trunc nuw i64 %33 to i32
  br label %35

35:                                               ; preds = %35, %32
  %.0.i.us = phi i32 [ %34, %32 ], [ %38, %35 ]
  %36 = sext i32 %.0.i.us to i64
  %37 = getelementptr inbounds %"class.cv::ximgproc::segmentation::PointSetElement", ptr %27, i64 %36
  %38 = load i32, ptr %37, align 4, !tbaa !60
  %.not.i.us = icmp eq i32 %.0.i.us, %38
  br i1 %.not.i.us, label %_ZN2cv8ximgproc12segmentation8PointSet12getBasePointEi.exit.us, label %35, !llvm.loop !62

_ZN2cv8ximgproc12segmentation8PointSet12getBasePointEi.exit.us: ; preds = %35
  %39 = getelementptr inbounds nuw %"class.cv::ximgproc::segmentation::PointSetElement", ptr %27, i64 %33
  store i32 %.0.i.us, ptr %39, align 4, !tbaa !60
  %40 = getelementptr inbounds i32, ptr %13, i64 %36
  %41 = load i32, ptr %40, align 4, !tbaa !34
  %42 = icmp eq i32 %41, -1
  br i1 %42, label %43, label %45

43:                                               ; preds = %_ZN2cv8ximgproc12segmentation8PointSet12getBasePointEi.exit.us
  store i32 %.143.us, ptr %40, align 4, !tbaa !34
  %44 = add nsw i32 %.143.us, 1
  br label %45

45:                                               ; preds = %43, %_ZN2cv8ximgproc12segmentation8PointSet12getBasePointEi.exit.us
  %46 = phi i32 [ %.143.us, %43 ], [ %41, %_ZN2cv8ximgproc12segmentation8PointSet12getBasePointEi.exit.us ]
  %.2.us = phi i32 [ %44, %43 ], [ %.143.us, %_ZN2cv8ximgproc12segmentation8PointSet12getBasePointEi.exit.us ]
  %47 = getelementptr inbounds nuw i32, ptr %30, i64 %indvars.iv
  store i32 %46, ptr %47, align 4, !tbaa !34
  %indvars.iv.next = add nuw nsw i64 %indvars.iv, 1
  %exitcond.not = icmp eq i64 %indvars.iv.next, %28
  br i1 %exitcond.not, label %._crit_edge46.us, label %32, !llvm.loop !66

._crit_edge46.us:                                 ; preds = %45
  %indvars.iv.next56 = add nuw nsw i64 %indvars.iv55, 1
  %exitcond59.not = icmp eq i64 %indvars.iv.next56, %wide.trip.count58
  br i1 %exitcond59.not, label %._crit_edge51, label %.lr.ph45.us, !llvm.loop !67

._crit_edge51:                                    ; preds = %._crit_edge46.us, %.lr.ph50, %._crit_edge
  tail call void @_ZdaPv(ptr noundef nonnull %13) #23
  ret void
}